
loginsim:     file format elf64-x86-64


Disassembly of section .init:

0000000000001000 <_init>:
    1000:	f3 0f 1e fa          	endbr64
    1004:	48 83 ec 08          	sub    $0x8,%rsp
    1008:	48 8b 05 d9 2f 00 00 	mov    0x2fd9(%rip),%rax        # 3fe8 <__gmon_start__>
    100f:	48 85 c0             	test   %rax,%rax
    1012:	74 02                	je     1016 <_init+0x16>
    1014:	ff d0                	call   *%rax
    1016:	48 83 c4 08          	add    $0x8,%rsp
    101a:	c3                   	ret

Disassembly of section .plt:

0000000000001020 <strncmp@plt-0x10>:
    1020:	ff 35 e2 2f 00 00    	push   0x2fe2(%rip)        # 4008 <_GLOBAL_OFFSET_TABLE_+0x8>
    1026:	ff 25 e4 2f 00 00    	jmp    *0x2fe4(%rip)        # 4010 <_GLOBAL_OFFSET_TABLE_+0x10>
    102c:	0f 1f 40 00          	nopl   0x0(%rax)

0000000000001030 <strncmp@plt>:
    1030:	ff 25 e2 2f 00 00    	jmp    *0x2fe2(%rip)        # 4018 <strncmp@GLIBC_2.2.5>
    1036:	68 00 00 00 00       	push   $0x0
    103b:	e9 e0 ff ff ff       	jmp    1020 <_init+0x20>

0000000000001040 <puts@plt>:
    1040:	ff 25 da 2f 00 00    	jmp    *0x2fda(%rip)        # 4020 <puts@GLIBC_2.2.5>
    1046:	68 01 00 00 00       	push   $0x1
    104b:	e9 d0 ff ff ff       	jmp    1020 <_init+0x20>

0000000000001050 <__stack_chk_fail@plt>:
    1050:	ff 25 d2 2f 00 00    	jmp    *0x2fd2(%rip)        # 4028 <__stack_chk_fail@GLIBC_2.4>
    1056:	68 02 00 00 00       	push   $0x2
    105b:	e9 c0 ff ff ff       	jmp    1020 <_init+0x20>

0000000000001060 <printf@plt>:
    1060:	ff 25 ca 2f 00 00    	jmp    *0x2fca(%rip)        # 4030 <printf@GLIBC_2.2.5>
    1066:	68 03 00 00 00       	push   $0x3
    106b:	e9 b0 ff ff ff       	jmp    1020 <_init+0x20>

0000000000001070 <read@plt>:
    1070:	ff 25 c2 2f 00 00    	jmp    *0x2fc2(%rip)        # 4038 <read@GLIBC_2.2.5>
    1076:	68 04 00 00 00       	push   $0x4
    107b:	e9 a0 ff ff ff       	jmp    1020 <_init+0x20>

0000000000001080 <setvbuf@plt>:
    1080:	ff 25 ba 2f 00 00    	jmp    *0x2fba(%rip)        # 4040 <setvbuf@GLIBC_2.2.5>
    1086:	68 05 00 00 00       	push   $0x5
    108b:	e9 90 ff ff ff       	jmp    1020 <_init+0x20>

0000000000001090 <__isoc99_scanf@plt>:
    1090:	ff 25 b2 2f 00 00    	jmp    *0x2fb2(%rip)        # 4048 <__isoc99_scanf@GLIBC_2.7>
    1096:	68 06 00 00 00       	push   $0x6
    109b:	e9 80 ff ff ff       	jmp    1020 <_init+0x20>

Disassembly of section .text:

00000000000010a0 <_start>:
    10a0:	f3 0f 1e fa          	endbr64
    10a4:	31 ed                	xor    %ebp,%ebp
    10a6:	49 89 d1             	mov    %rdx,%r9
    10a9:	5e                   	pop    %rsi
    10aa:	48 89 e2             	mov    %rsp,%rdx
    10ad:	48 83 e4 f0          	and    $0xfffffffffffffff0,%rsp
    10b1:	50                   	push   %rax
    10b2:	54                   	push   %rsp
    10b3:	4c 8d 05 26 06 00 00 	lea    0x626(%rip),%r8        # 16e0 <__libc_csu_fini>
    10ba:	48 8d 0d af 05 00 00 	lea    0x5af(%rip),%rcx        # 1670 <__libc_csu_init>
    10c1:	48 8d 3d 3f 04 00 00 	lea    0x43f(%rip),%rdi        # 1507 <main>
    10c8:	ff 15 12 2f 00 00    	call   *0x2f12(%rip)        # 3fe0 <__libc_start_main@GLIBC_2.2.5>
    10ce:	f4                   	hlt
    10cf:	90                   	nop

00000000000010d0 <deregister_tm_clones>:
    10d0:	48 8d 3d 89 2f 00 00 	lea    0x2f89(%rip),%rdi        # 4060 <stdout@GLIBC_2.2.5>
    10d7:	48 8d 05 82 2f 00 00 	lea    0x2f82(%rip),%rax        # 4060 <stdout@GLIBC_2.2.5>
    10de:	48 39 f8             	cmp    %rdi,%rax
    10e1:	74 15                	je     10f8 <deregister_tm_clones+0x28>
    10e3:	48 8b 05 ee 2e 00 00 	mov    0x2eee(%rip),%rax        # 3fd8 <_ITM_deregisterTMCloneTable>
    10ea:	48 85 c0             	test   %rax,%rax
    10ed:	74 09                	je     10f8 <deregister_tm_clones+0x28>
    10ef:	ff e0                	jmp    *%rax
    10f1:	0f 1f 80 00 00 00 00 	nopl   0x0(%rax)
    10f8:	c3                   	ret
    10f9:	0f 1f 80 00 00 00 00 	nopl   0x0(%rax)

0000000000001100 <register_tm_clones>:
    1100:	48 8d 3d 59 2f 00 00 	lea    0x2f59(%rip),%rdi        # 4060 <stdout@GLIBC_2.2.5>
    1107:	48 8d 35 52 2f 00 00 	lea    0x2f52(%rip),%rsi        # 4060 <stdout@GLIBC_2.2.5>
    110e:	48 29 fe             	sub    %rdi,%rsi
    1111:	48 89 f0             	mov    %rsi,%rax
    1114:	48 c1 ee 3f          	shr    $0x3f,%rsi
    1118:	48 c1 f8 03          	sar    $0x3,%rax
    111c:	48 01 c6             	add    %rax,%rsi
    111f:	48 d1 fe             	sar    $1,%rsi
    1122:	74 14                	je     1138 <register_tm_clones+0x38>
    1124:	48 8b 05 c5 2e 00 00 	mov    0x2ec5(%rip),%rax        # 3ff0 <_ITM_registerTMCloneTable>
    112b:	48 85 c0             	test   %rax,%rax
    112e:	74 08                	je     1138 <register_tm_clones+0x38>
    1130:	ff e0                	jmp    *%rax
    1132:	66 0f 1f 44 00 00    	nopw   0x0(%rax,%rax,1)
    1138:	c3                   	ret
    1139:	0f 1f 80 00 00 00 00 	nopl   0x0(%rax)

0000000000001140 <__do_global_dtors_aux>:
    1140:	f3 0f 1e fa          	endbr64
    1144:	80 3d 3d 2f 00 00 00 	cmpb   $0x0,0x2f3d(%rip)        # 4088 <completed.0>
    114b:	75 33                	jne    1180 <__do_global_dtors_aux+0x40>
    114d:	55                   	push   %rbp
    114e:	48 83 3d a2 2e 00 00 	cmpq   $0x0,0x2ea2(%rip)        # 3ff8 <__cxa_finalize@GLIBC_2.2.5>
    1155:	00 
    1156:	48 89 e5             	mov    %rsp,%rbp
    1159:	74 0d                	je     1168 <__do_global_dtors_aux+0x28>
    115b:	48 8b 3d f6 2e 00 00 	mov    0x2ef6(%rip),%rdi        # 4058 <__dso_handle>
    1162:	ff 15 90 2e 00 00    	call   *0x2e90(%rip)        # 3ff8 <__cxa_finalize@GLIBC_2.2.5>
    1168:	e8 63 ff ff ff       	call   10d0 <deregister_tm_clones>
    116d:	c6 05 14 2f 00 00 01 	movb   $0x1,0x2f14(%rip)        # 4088 <completed.0>
    1174:	5d                   	pop    %rbp
    1175:	c3                   	ret
    1176:	66 2e 0f 1f 84 00 00 	cs nopw 0x0(%rax,%rax,1)
    117d:	00 00 00 
    1180:	c3                   	ret
    1181:	66 66 2e 0f 1f 84 00 	data16 cs nopw 0x0(%rax,%rax,1)
    1188:	00 00 00 00 
    118c:	0f 1f 40 00          	nopl   0x0(%rax)

0000000000001190 <frame_dummy>:
    1190:	f3 0f 1e fa          	endbr64
    1194:	e9 67 ff ff ff       	jmp    1100 <register_tm_clones>

0000000000001199 <setup>:
    1199:	55                   	push   %rbp
    119a:	48 89 e5             	mov    %rsp,%rbp
    119d:	48 8b 05 cc 2e 00 00 	mov    0x2ecc(%rip),%rax        # 4070 <stdin@GLIBC_2.2.5>
    11a4:	b9 00 00 00 00       	mov    $0x0,%ecx
    11a9:	ba 02 00 00 00       	mov    $0x2,%edx
    11ae:	be 00 00 00 00       	mov    $0x0,%esi
    11b3:	48 89 c7             	mov    %rax,%rdi
    11b6:	e8 c5 fe ff ff       	call   1080 <setvbuf@plt>
    11bb:	48 8b 05 9e 2e 00 00 	mov    0x2e9e(%rip),%rax        # 4060 <stdout@GLIBC_2.2.5>
    11c2:	b9 00 00 00 00       	mov    $0x0,%ecx
    11c7:	ba 02 00 00 00       	mov    $0x2,%edx
    11cc:	be 00 00 00 00       	mov    $0x0,%esi
    11d1:	48 89 c7             	mov    %rax,%rdi
    11d4:	e8 a7 fe ff ff       	call   1080 <setvbuf@plt>
    11d9:	48 8b 05 a0 2e 00 00 	mov    0x2ea0(%rip),%rax        # 4080 <stderr@GLIBC_2.2.5>
    11e0:	b9 00 00 00 00       	mov    $0x0,%ecx
    11e5:	ba 02 00 00 00       	mov    $0x2,%edx
    11ea:	be 00 00 00 00       	mov    $0x0,%esi
    11ef:	48 89 c7             	mov    %rax,%rdi
    11f2:	e8 89 fe ff ff       	call   1080 <setvbuf@plt>
    11f7:	90                   	nop
    11f8:	5d                   	pop    %rbp
    11f9:	c3                   	ret

00000000000011fa <banner>:
    11fa:	55                   	push   %rbp
    11fb:	48 89 e5             	mov    %rsp,%rbp
    11fe:	48 8d 05 03 0e 00 00 	lea    0xe03(%rip),%rax        # 2008 <_IO_stdin_used+0x8>
    1205:	48 89 c7             	mov    %rax,%rdi
    1208:	e8 33 fe ff ff       	call   1040 <puts@plt>
    120d:	48 8d 05 7c 0e 00 00 	lea    0xe7c(%rip),%rax        # 2090 <_IO_stdin_used+0x90>
    1214:	48 89 c7             	mov    %rax,%rdi
    1217:	e8 24 fe ff ff       	call   1040 <puts@plt>
    121c:	48 8d 05 f5 0e 00 00 	lea    0xef5(%rip),%rax        # 2118 <_IO_stdin_used+0x118>
    1223:	48 89 c7             	mov    %rax,%rdi
    1226:	e8 15 fe ff ff       	call   1040 <puts@plt>
    122b:	48 8d 05 6e 0f 00 00 	lea    0xf6e(%rip),%rax        # 21a0 <_IO_stdin_used+0x1a0>
    1232:	48 89 c7             	mov    %rax,%rdi
    1235:	e8 06 fe ff ff       	call   1040 <puts@plt>
    123a:	48 8d 05 e7 0f 00 00 	lea    0xfe7(%rip),%rax        # 2228 <_IO_stdin_used+0x228>
    1241:	48 89 c7             	mov    %rax,%rdi
    1244:	e8 f7 fd ff ff       	call   1040 <puts@plt>
    1249:	48 8d 05 60 10 00 00 	lea    0x1060(%rip),%rax        # 22b0 <_IO_stdin_used+0x2b0>
    1250:	48 89 c7             	mov    %rax,%rdi
    1253:	e8 e8 fd ff ff       	call   1040 <puts@plt>
    1258:	48 8d 05 d9 10 00 00 	lea    0x10d9(%rip),%rax        # 2338 <_IO_stdin_used+0x338>
    125f:	48 89 c7             	mov    %rax,%rdi
    1262:	e8 d9 fd ff ff       	call   1040 <puts@plt>
    1267:	48 8d 05 52 11 00 00 	lea    0x1152(%rip),%rax        # 23c0 <_IO_stdin_used+0x3c0>
    126e:	48 89 c7             	mov    %rax,%rdi
    1271:	e8 ca fd ff ff       	call   1040 <puts@plt>
    1276:	48 8d 05 cb 11 00 00 	lea    0x11cb(%rip),%rax        # 2448 <_IO_stdin_used+0x448>
    127d:	48 89 c7             	mov    %rax,%rdi
    1280:	e8 bb fd ff ff       	call   1040 <puts@plt>
    1285:	48 8d 05 44 12 00 00 	lea    0x1244(%rip),%rax        # 24d0 <_IO_stdin_used+0x4d0>
    128c:	48 89 c7             	mov    %rax,%rdi
    128f:	e8 ac fd ff ff       	call   1040 <puts@plt>
    1294:	48 8d 05 bd 12 00 00 	lea    0x12bd(%rip),%rax        # 2558 <_IO_stdin_used+0x558>
    129b:	48 89 c7             	mov    %rax,%rdi
    129e:	e8 9d fd ff ff       	call   1040 <puts@plt>
    12a3:	48 8d 05 33 13 00 00 	lea    0x1333(%rip),%rax        # 25dd <_IO_stdin_used+0x5dd>
    12aa:	48 89 c7             	mov    %rax,%rdi
    12ad:	e8 8e fd ff ff       	call   1040 <puts@plt>
    12b2:	90                   	nop
    12b3:	5d                   	pop    %rbp
    12b4:	c3                   	ret

00000000000012b5 <menu>:
    12b5:	55                   	push   %rbp
    12b6:	48 89 e5             	mov    %rsp,%rbp
    12b9:	48 8d 05 1e 13 00 00 	lea    0x131e(%rip),%rax        # 25de <_IO_stdin_used+0x5de>
    12c0:	48 89 c7             	mov    %rax,%rdi
    12c3:	e8 78 fd ff ff       	call   1040 <puts@plt>
    12c8:	48 8d 05 1f 13 00 00 	lea    0x131f(%rip),%rax        # 25ee <_IO_stdin_used+0x5ee>
    12cf:	48 89 c7             	mov    %rax,%rdi
    12d2:	e8 69 fd ff ff       	call   1040 <puts@plt>
    12d7:	48 8d 05 20 13 00 00 	lea    0x1320(%rip),%rax        # 25fe <_IO_stdin_used+0x5fe>
    12de:	48 89 c7             	mov    %rax,%rdi
    12e1:	e8 5a fd ff ff       	call   1040 <puts@plt>
    12e6:	48 8d 05 21 13 00 00 	lea    0x1321(%rip),%rax        # 260e <_IO_stdin_used+0x60e>
    12ed:	48 89 c7             	mov    %rax,%rdi
    12f0:	b8 00 00 00 00       	mov    $0x0,%eax
    12f5:	e8 66 fd ff ff       	call   1060 <printf@plt>
    12fa:	90                   	nop
    12fb:	5d                   	pop    %rbp
    12fc:	c3                   	ret

00000000000012fd <getInput>:
    12fd:	55                   	push   %rbp
    12fe:	48 89 e5             	mov    %rsp,%rbp
    1301:	48 83 ec 20          	sub    $0x20,%rsp
    1305:	48 89 7d e8          	mov    %rdi,-0x18(%rbp)
    1309:	89 75 e4             	mov    %esi,-0x1c(%rbp)
    130c:	64 48 8b 04 25 28 00 	mov    %fs:0x28,%rax
    1313:	00 00 
    1315:	48 89 45 f8          	mov    %rax,-0x8(%rbp)
    1319:	31 c0                	xor    %eax,%eax
    131b:	c6 45 f7 00          	movb   $0x0,-0x9(%rbp)
    131f:	eb 4e                	jmp    136f <getInput+0x72>
    1321:	48 8d 45 f6          	lea    -0xa(%rbp),%rax
    1325:	ba 01 00 00 00       	mov    $0x1,%edx
    132a:	48 89 c6             	mov    %rax,%rsi
    132d:	bf 00 00 00 00       	mov    $0x0,%edi
    1332:	b8 00 00 00 00       	mov    $0x0,%eax
    1337:	e8 34 fd ff ff       	call   1070 <read@plt>
    133c:	85 c0                	test   %eax,%eax
    133e:	7e 3a                	jle    137a <getInput+0x7d>
    1340:	0f b6 45 f6          	movzbl -0xa(%rbp),%eax
    1344:	3c 20                	cmp    $0x20,%al
    1346:	74 1c                	je     1364 <getInput+0x67>
    1348:	0f b6 45 f6          	movzbl -0xa(%rbp),%eax
    134c:	3c 0a                	cmp    $0xa,%al
    134e:	74 2d                	je     137d <getInput+0x80>
    1350:	48 0f be 55 f7       	movsbq -0x9(%rbp),%rdx
    1355:	48 8b 45 e8          	mov    -0x18(%rbp),%rax
    1359:	48 01 c2             	add    %rax,%rdx
    135c:	0f b6 45 f6          	movzbl -0xa(%rbp),%eax
    1360:	88 02                	mov    %al,(%rdx)
    1362:	eb 01                	jmp    1365 <getInput+0x68>
    1364:	90                   	nop
    1365:	0f b6 45 f7          	movzbl -0x9(%rbp),%eax
    1369:	83 c0 01             	add    $0x1,%eax
    136c:	88 45 f7             	mov    %al,-0x9(%rbp)
    136f:	0f be 45 f7          	movsbl -0x9(%rbp),%eax
    1373:	39 45 e4             	cmp    %eax,-0x1c(%rbp)
    1376:	7f a9                	jg     1321 <getInput+0x24>
    1378:	eb 04                	jmp    137e <getInput+0x81>
    137a:	90                   	nop
    137b:	eb 01                	jmp    137e <getInput+0x81>
    137d:	90                   	nop
    137e:	90                   	nop
    137f:	48 8b 45 f8          	mov    -0x8(%rbp),%rax
    1383:	64 48 2b 04 25 28 00 	sub    %fs:0x28,%rax
    138a:	00 00 
    138c:	74 05                	je     1393 <getInput+0x96>
    138e:	e8 bd fc ff ff       	call   1050 <__stack_chk_fail@plt>
    1393:	c9                   	leave
    1394:	c3                   	ret

0000000000001395 <_login>:
    1395:	55                   	push   %rbp
    1396:	48 89 e5             	mov    %rsp,%rbp
    1399:	48 81 ec b0 00 00 00 	sub    $0xb0,%rsp
    13a0:	48 89 bd 58 ff ff ff 	mov    %rdi,-0xa8(%rbp)
    13a7:	89 b5 54 ff ff ff    	mov    %esi,-0xac(%rbp)
    13ad:	64 48 8b 04 25 28 00 	mov    %fs:0x28,%rax
    13b4:	00 00 
    13b6:	48 89 45 f8          	mov    %rax,-0x8(%rbp)
    13ba:	31 c0                	xor    %eax,%eax
    13bc:	48 8d 05 4f 12 00 00 	lea    0x124f(%rip),%rax        # 2612 <_IO_stdin_used+0x612>
    13c3:	48 89 c7             	mov    %rax,%rdi
    13c6:	b8 00 00 00 00       	mov    $0x0,%eax
    13cb:	e8 90 fc ff ff       	call   1060 <printf@plt>
    13d0:	8b 95 54 ff ff ff    	mov    -0xac(%rbp),%edx
    13d6:	48 8d 85 60 ff ff ff 	lea    -0xa0(%rbp),%rax
    13dd:	89 d6                	mov    %edx,%esi
    13df:	48 89 c7             	mov    %rax,%rdi
    13e2:	e8 16 ff ff ff       	call   12fd <getInput>
    13e7:	8b 85 54 ff ff ff    	mov    -0xac(%rbp),%eax
    13ed:	48 63 d0             	movslq %eax,%rdx
    13f0:	48 8b 8d 58 ff ff ff 	mov    -0xa8(%rbp),%rcx
    13f7:	48 8d 85 60 ff ff ff 	lea    -0xa0(%rbp),%rax
    13fe:	48 89 ce             	mov    %rcx,%rsi
    1401:	48 89 c7             	mov    %rax,%rdi
    1404:	e8 27 fc ff ff       	call   1030 <strncmp@plt>
    1409:	85 c0                	test   %eax,%eax
    140b:	75 07                	jne    1414 <_login+0x7f>
    140d:	b8 01 00 00 00       	mov    $0x1,%eax
    1412:	eb 05                	jmp    1419 <_login+0x84>
    1414:	b8 00 00 00 00       	mov    $0x0,%eax
    1419:	48 8b 55 f8          	mov    -0x8(%rbp),%rdx
    141d:	64 48 2b 14 25 28 00 	sub    %fs:0x28,%rdx
    1424:	00 00 
    1426:	74 05                	je     142d <_login+0x98>
    1428:	e8 23 fc ff ff       	call   1050 <__stack_chk_fail@plt>
    142d:	c9                   	leave
    142e:	c3                   	ret

000000000000142f <_register>:
    142f:	55                   	push   %rbp
    1430:	48 89 e5             	mov    %rsp,%rbp
    1433:	48 83 ec 20          	sub    $0x20,%rsp
    1437:	48 89 7d e8          	mov    %rdi,-0x18(%rbp)
    143b:	64 48 8b 04 25 28 00 	mov    %fs:0x28,%rax
    1442:	00 00 
    1444:	48 89 45 f8          	mov    %rax,-0x8(%rbp)
    1448:	31 c0                	xor    %eax,%eax
    144a:	48 8d 05 d0 11 00 00 	lea    0x11d0(%rip),%rax        # 2621 <_IO_stdin_used+0x621>
    1451:	48 89 c7             	mov    %rax,%rdi
    1454:	b8 00 00 00 00       	mov    $0x0,%eax
    1459:	e8 02 fc ff ff       	call   1060 <printf@plt>
    145e:	48 8d 45 f4          	lea    -0xc(%rbp),%rax
    1462:	48 89 c6             	mov    %rax,%rsi
    1465:	48 8d 05 cb 11 00 00 	lea    0x11cb(%rip),%rax        # 2637 <_IO_stdin_used+0x637>
    146c:	48 89 c7             	mov    %rax,%rdi
    146f:	b8 00 00 00 00       	mov    $0x0,%eax
    1474:	e8 17 fc ff ff       	call   1090 <__isoc99_scanf@plt>
    1479:	85 c0                	test   %eax,%eax
    147b:	79 16                	jns    1493 <_register+0x64>
    147d:	48 8d 05 b6 11 00 00 	lea    0x11b6(%rip),%rax        # 263a <_IO_stdin_used+0x63a>
    1484:	48 89 c7             	mov    %rax,%rdi
    1487:	e8 b4 fb ff ff       	call   1040 <puts@plt>
    148c:	b8 ff ff ff ff       	mov    $0xffffffff,%eax
    1491:	eb 5e                	jmp    14f1 <_register+0xc2>
    1493:	8b 45 f4             	mov    -0xc(%rbp),%eax
    1496:	85 c0                	test   %eax,%eax
    1498:	7e 0a                	jle    14a4 <_register+0x75>
    149a:	8b 45 f4             	mov    -0xc(%rbp),%eax
    149d:	3d 80 00 00 00       	cmp    $0x80,%eax
    14a2:	7e 16                	jle    14ba <_register+0x8b>
    14a4:	48 8d 05 a5 11 00 00 	lea    0x11a5(%rip),%rax        # 2650 <_IO_stdin_used+0x650>
    14ab:	48 89 c7             	mov    %rax,%rdi
    14ae:	e8 8d fb ff ff       	call   1040 <puts@plt>
    14b3:	b8 ff ff ff ff       	mov    $0xffffffff,%eax
    14b8:	eb 37                	jmp    14f1 <_register+0xc2>
    14ba:	48 8d 05 9f 11 00 00 	lea    0x119f(%rip),%rax        # 2660 <_IO_stdin_used+0x660>
    14c1:	48 89 c7             	mov    %rax,%rdi
    14c4:	b8 00 00 00 00       	mov    $0x0,%eax
    14c9:	e8 92 fb ff ff       	call   1060 <printf@plt>
    14ce:	8b 55 f4             	mov    -0xc(%rbp),%edx
    14d1:	48 8b 45 e8          	mov    -0x18(%rbp),%rax
    14d5:	89 d6                	mov    %edx,%esi
    14d7:	48 89 c7             	mov    %rax,%rdi
    14da:	e8 1e fe ff ff       	call   12fd <getInput>
    14df:	48 8d 05 92 11 00 00 	lea    0x1192(%rip),%rax        # 2678 <_IO_stdin_used+0x678>
    14e6:	48 89 c7             	mov    %rax,%rdi
    14e9:	e8 52 fb ff ff       	call   1040 <puts@plt>
    14ee:	8b 45 f4             	mov    -0xc(%rbp),%eax
    14f1:	48 8b 55 f8          	mov    -0x8(%rbp),%rdx
    14f5:	64 48 2b 14 25 28 00 	sub    %fs:0x28,%rdx
    14fc:	00 00 
    14fe:	74 05                	je     1505 <_register+0xd6>
    1500:	e8 4b fb ff ff       	call   1050 <__stack_chk_fail@plt>
    1505:	c9                   	leave
    1506:	c3                   	ret

0000000000001507 <main>:
    1507:	55                   	push   %rbp
    1508:	48 89 e5             	mov    %rsp,%rbp
    150b:	48 81 ec b0 00 00 00 	sub    $0xb0,%rsp
    1512:	64 48 8b 04 25 28 00 	mov    %fs:0x28,%rax
    1519:	00 00 
    151b:	48 89 45 f8          	mov    %rax,-0x8(%rbp)
    151f:	31 c0                	xor    %eax,%eax
    1521:	c6 85 57 ff ff ff 00 	movb   $0x0,-0xa9(%rbp)
    1528:	b8 00 00 00 00       	mov    $0x0,%eax
    152d:	e8 67 fc ff ff       	call   1199 <setup>
    1532:	b8 00 00 00 00       	mov    $0x0,%eax
    1537:	e8 be fc ff ff       	call   11fa <banner>
    153c:	b8 00 00 00 00       	mov    $0x0,%eax
    1541:	e8 6f fd ff ff       	call   12b5 <menu>
    1546:	48 8d 85 58 ff ff ff 	lea    -0xa8(%rbp),%rax
    154d:	48 89 c6             	mov    %rax,%rsi
    1550:	48 8d 05 e0 10 00 00 	lea    0x10e0(%rip),%rax        # 2637 <_IO_stdin_used+0x637>
    1557:	48 89 c7             	mov    %rax,%rdi
    155a:	b8 00 00 00 00       	mov    $0x0,%eax
    155f:	e8 2c fb ff ff       	call   1090 <__isoc99_scanf@plt>
    1564:	85 c0                	test   %eax,%eax
    1566:	79 19                	jns    1581 <main+0x7a>
    1568:	48 8d 05 2b 11 00 00 	lea    0x112b(%rip),%rax        # 269a <_IO_stdin_used+0x69a>
    156f:	48 89 c7             	mov    %rax,%rdi
    1572:	e8 c9 fa ff ff       	call   1040 <puts@plt>
    1577:	b8 01 00 00 00       	mov    $0x1,%eax
    157c:	e9 d6 00 00 00       	jmp    1657 <main+0x150>
    1581:	8b 85 58 ff ff ff    	mov    -0xa8(%rbp),%eax
    1587:	83 f8 03             	cmp    $0x3,%eax
    158a:	0f 84 a5 00 00 00    	je     1635 <main+0x12e>
    1590:	83 f8 03             	cmp    $0x3,%eax
    1593:	0f 8f a3 00 00 00    	jg     163c <main+0x135>
    1599:	83 f8 01             	cmp    $0x1,%eax
    159c:	74 0a                	je     15a8 <main+0xa1>
    159e:	83 f8 02             	cmp    $0x2,%eax
    15a1:	74 36                	je     15d9 <main+0xd2>
    15a3:	e9 94 00 00 00       	jmp    163c <main+0x135>
    15a8:	48 8d 85 60 ff ff ff 	lea    -0xa0(%rbp),%rax
    15af:	48 89 c7             	mov    %rax,%rdi
    15b2:	e8 78 fe ff ff       	call   142f <_register>
    15b7:	89 85 5c ff ff ff    	mov    %eax,-0xa4(%rbp)
    15bd:	83 bd 5c ff ff ff 00 	cmpl   $0x0,-0xa4(%rbp)
    15c4:	79 0a                	jns    15d0 <main+0xc9>
    15c6:	b8 01 00 00 00       	mov    $0x1,%eax
    15cb:	e9 87 00 00 00       	jmp    1657 <main+0x150>
    15d0:	c6 85 57 ff ff ff 01 	movb   $0x1,-0xa9(%rbp)
    15d7:	eb 79                	jmp    1652 <main+0x14b>
    15d9:	0f b6 85 57 ff ff ff 	movzbl -0xa9(%rbp),%eax
    15e0:	83 f0 01             	xor    $0x1,%eax
    15e3:	84 c0                	test   %al,%al
    15e5:	74 11                	je     15f8 <main+0xf1>
    15e7:	48 8d 05 c3 10 00 00 	lea    0x10c3(%rip),%rax        # 26b1 <_IO_stdin_used+0x6b1>
    15ee:	48 89 c7             	mov    %rax,%rdi
    15f1:	e8 4a fa ff ff       	call   1040 <puts@plt>
    15f6:	eb 5a                	jmp    1652 <main+0x14b>
    15f8:	8b 95 5c ff ff ff    	mov    -0xa4(%rbp),%edx
    15fe:	48 8d 85 60 ff ff ff 	lea    -0xa0(%rbp),%rax
    1605:	89 d6                	mov    %edx,%esi
    1607:	48 89 c7             	mov    %rax,%rdi
    160a:	e8 86 fd ff ff       	call   1395 <_login>
    160f:	85 c0                	test   %eax,%eax
    1611:	74 11                	je     1624 <main+0x11d>
    1613:	48 8d 05 b3 10 00 00 	lea    0x10b3(%rip),%rax        # 26cd <_IO_stdin_used+0x6cd>
    161a:	48 89 c7             	mov    %rax,%rdi
    161d:	e8 1e fa ff ff       	call   1040 <puts@plt>
    1622:	eb 2e                	jmp    1652 <main+0x14b>
    1624:	48 8d 05 b0 10 00 00 	lea    0x10b0(%rip),%rax        # 26db <_IO_stdin_used+0x6db>
    162b:	48 89 c7             	mov    %rax,%rdi
    162e:	e8 0d fa ff ff       	call   1040 <puts@plt>
    1633:	eb 1d                	jmp    1652 <main+0x14b>
    1635:	b8 00 00 00 00       	mov    $0x0,%eax
    163a:	eb 1b                	jmp    1657 <main+0x150>
    163c:	48 8d 05 ad 10 00 00 	lea    0x10ad(%rip),%rax        # 26f0 <_IO_stdin_used+0x6f0>
    1643:	48 89 c7             	mov    %rax,%rdi
    1646:	e8 f5 f9 ff ff       	call   1040 <puts@plt>
    164b:	b8 01 00 00 00       	mov    $0x1,%eax
    1650:	eb 05                	jmp    1657 <main+0x150>
    1652:	e9 e5 fe ff ff       	jmp    153c <main+0x35>
    1657:	48 8b 55 f8          	mov    -0x8(%rbp),%rdx
    165b:	64 48 2b 14 25 28 00 	sub    %fs:0x28,%rdx
    1662:	00 00 
    1664:	74 05                	je     166b <main+0x164>
    1666:	e8 e5 f9 ff ff       	call   1050 <__stack_chk_fail@plt>
    166b:	c9                   	leave
    166c:	c3                   	ret
    166d:	0f 1f 00             	nopl   (%rax)

0000000000001670 <__libc_csu_init>:
    1670:	f3 0f 1e fa          	endbr64
    1674:	41 57                	push   %r15
    1676:	4c 8d 3d 6b 27 00 00 	lea    0x276b(%rip),%r15        # 3de8 <__frame_dummy_init_array_entry>
    167d:	41 56                	push   %r14
    167f:	49 89 d6             	mov    %rdx,%r14
    1682:	41 55                	push   %r13
    1684:	49 89 f5             	mov    %rsi,%r13
    1687:	41 54                	push   %r12
    1689:	41 89 fc             	mov    %edi,%r12d
    168c:	55                   	push   %rbp
    168d:	48 8d 2d 5c 27 00 00 	lea    0x275c(%rip),%rbp        # 3df0 <__do_global_dtors_aux_fini_array_entry>
    1694:	53                   	push   %rbx
    1695:	4c 29 fd             	sub    %r15,%rbp
    1698:	48 83 ec 08          	sub    $0x8,%rsp
    169c:	e8 5f f9 ff ff       	call   1000 <_init>
    16a1:	48 c1 fd 03          	sar    $0x3,%rbp
    16a5:	74 1f                	je     16c6 <__libc_csu_init+0x56>
    16a7:	31 db                	xor    %ebx,%ebx
    16a9:	0f 1f 80 00 00 00 00 	nopl   0x0(%rax)
    16b0:	4c 89 f2             	mov    %r14,%rdx
    16b3:	4c 89 ee             	mov    %r13,%rsi
    16b6:	44 89 e7             	mov    %r12d,%edi
    16b9:	41 ff 14 df          	call   *(%r15,%rbx,8)
    16bd:	48 83 c3 01          	add    $0x1,%rbx
    16c1:	48 39 dd             	cmp    %rbx,%rbp
    16c4:	75 ea                	jne    16b0 <__libc_csu_init+0x40>
    16c6:	48 83 c4 08          	add    $0x8,%rsp
    16ca:	5b                   	pop    %rbx
    16cb:	5d                   	pop    %rbp
    16cc:	41 5c                	pop    %r12
    16ce:	41 5d                	pop    %r13
    16d0:	41 5e                	pop    %r14
    16d2:	41 5f                	pop    %r15
    16d4:	c3                   	ret
    16d5:	66 66 2e 0f 1f 84 00 	data16 cs nopw 0x0(%rax,%rax,1)
    16dc:	00 00 00 00 

00000000000016e0 <__libc_csu_fini>:
    16e0:	f3 0f 1e fa          	endbr64
    16e4:	c3                   	ret

Disassembly of section .fini:

00000000000016e8 <_fini>:
    16e8:	f3 0f 1e fa          	endbr64
    16ec:	48 83 ec 08          	sub    $0x8,%rsp
    16f0:	48 83 c4 08          	add    $0x8,%rsp
    16f4:	c3                   	ret
